#include <math.h>
#include <stdio.h>
#include <stdlib.h>
#include <string.h>

main()
{
      int i,j,k,m,n,t;
      int a[26]={0};
      char s[1000];
      scanf("%d\n",&n);
      for(i=1;i<=n;i++)
      {
                       for(t=0;t<26;t++)
                       a[t]=0;
                       k=0;
                       gets(s);
                       m=strlen(s);
                       for(j=0;j<m;j++)
                       a[s[j]-'a']++;
                       for(j=0;j<m;j++)
                       {
                                       if(a[s[j]-'a']==1)
                        {printf("%c\n",s[j]);k=1;break;}
                                                       }
                       if(k==0)
                       printf("no\n");  
                       }}
